Certificate:
    Data:
        Version: 3 (0x2)
        Serial Number:
            33:fb:57:98:7f:b9:75:91:4d:9c:ac:39:43:f7:c1:ba
        Signature Algorithm: sha256WithRSAEncryption
        Issuer: C=US, O=Intel Corporation, CN=OTC TEST-ONLY UEFI Boot Signer
        Validity
            Not Before: Jun 20 18:18:19 2014 GMT
            Not After : Jun 20 18:18:19 2024 GMT
        Subject: C=US, O=Intel Corporation, CN=OTC TEST-ONLY UEFI Boot Signer
        Subject Public Key Info:
            Public Key Algorithm: rsaEncryption
            RSA Public Key: (2048 bit)
                Modulus (2048 bit):
                    00:b0:bb:b7:00:6a:28:53:b2:1c:bd:b5:ef:d3:f8:
                    bd:cb:57:51:21:de:f5:46:d4:a7:0c:f8:79:3d:ce:
                    5f:36:f1:16:0d:89:ed:5b:e3:07:bc:9b:c2:df:07:
                    2c:68:78:3b:8e:64:71:39:49:a8:c4:b6:60:53:d2:
                    fa:61:5c:ab:67:0c:5d:6a:93:b8:ab:83:c0:e8:33:
                    5f:a0:0a:16:dd:28:ed:a3:29:12:13:59:da:0b:5c:
                    0b:83:2a:09:6e:bd:e1:fc:eb:c1:ec:84:69:f0:f1:
                    d6:91:df:29:99:1e:26:cb:33:5a:76:15:fe:8f:19:
                    ce:f3:1d:33:f9:3d:48:3c:6e:d7:66:3b:e1:84:95:
                    db:26:7b:54:10:00:d6:4b:64:5d:0b:d3:b1:61:f5:
                    b1:69:10:4e:4a:ea:99:30:f0:06:84:f4:a8:2a:3c:
                    3b:65:f5:08:02:51:42:54:ad:c8:7b:99:ce:ad:44:
                    7b:4d:58:ee:21:ba:68:e9:c6:f0:7e:e7:9c:bc:c4:
                    ae:dd:2b:04:54:e3:e3:c2:dc:da:db:1f:e1:ae:1e:
                    0f:a8:dd:cd:06:ec:e5:f1:03:0a:57:ec:74:ce:22:
                    43:77:f5:71:74:61:53:70:2a:14:81:43:8e:7a:da:
                    23:8b:f9:9e:12:92:2b:e1:31:56:91:02:83:25:78:
                    67:f5
                Exponent: 65537 (0x10001)
    Signature Algorithm: sha256WithRSAEncryption
        87:7d:03:6c:cd:12:ad:0d:b1:c9:44:8f:39:f8:84:82:bf:0b:
        9e:67:46:6d:15:99:f6:e5:7d:a9:bc:72:b9:d9:b0:e5:f8:bf:
        a9:00:98:e3:d0:0b:c3:3b:99:49:cb:c9:50:7c:e7:7a:53:c6:
        11:06:81:fb:aa:89:2b:7e:41:43:f7:92:eb:96:47:1c:c8:4d:
        58:13:01:c0:76:8b:01:05:aa:5f:c8:c3:dd:d0:e1:f3:40:07:
        30:ff:e0:66:b5:19:b6:b2:be:38:82:c9:b0:cc:5e:ab:78:54:
        4d:f5:4f:a7:6d:10:57:63:e4:9d:4e:08:0f:d8:10:e8:c0:b4:
        6f:91:e1:f1:e7:82:ef:43:5d:e0:1d:3c:bd:e2:34:ee:84:a3:
        a5:e3:76:7c:29:68:87:56:f7:e5:e3:ac:d7:8f:a4:73:12:cd:
        a1:30:55:77:af:8d:ab:64:52:5c:21:1c:d5:db:a8:7e:20:c9:
        4f:d8:db:3d:67:91:21:bd:25:b5:f9:bf:2d:c3:5d:84:aa:e1:
        79:d6:5e:6f:be:2f:de:d1:44:11:73:c1:9c:41:cf:3d:9f:02:
        39:f8:30:fb:c4:d3:e0:7e:5a:39:02:28:b2:5c:8c:57:e4:47:
        b4:52:35:5c:66:ff:83:60:02:c7:6e:f9:bb:71:df:83:fd:5e:
        49:15:79:08
-----BEGIN CERTIFICATE-----
MIIDLDCCAhSgAwIBAgIQM/tXmH+5dZFNnKw5Q/fBujANBgkqhkiG9w0BAQsFADBS
MQswCQYDVQQGEwJVUzEaMBgGA1UEChMRSW50ZWwgQ29ycG9yYXRpb24xJzAlBgNV
BAMTHk9UQyBURVNULU9OTFkgVUVGSSBCb290IFNpZ25lcjAeFw0xNDA2MjAxODE4
MTlaFw0yNDA2MjAxODE4MTlaMFIxCzAJBgNVBAYTAlVTMRowGAYDVQQKExFJbnRl
bCBDb3Jwb3JhdGlvbjEnMCUGA1UEAxMeT1RDIFRFU1QtT05MWSBVRUZJIEJvb3Qg
U2lnbmVyMIIBIjANBgkqhkiG9w0BAQEFAAOCAQ8AMIIBCgKCAQEAsLu3AGooU7Ic
vbXv0/i9y1dRId71RtSnDPh5Pc5fNvEWDYntW+MHvJvC3wcsaHg7jmRxOUmoxLZg
U9L6YVyrZwxdapO4q4PA6DNfoAoW3SjtoykSE1naC1wLgyoJbr3h/OvB7IRp8PHW
kd8pmR4myzNadhX+jxnO8x0z+T1IPG7XZjvhhJXbJntUEADWS2RdC9OxYfWxaRBO
SuqZMPAGhPSoKjw7ZfUIAlFCVK3Ie5nOrUR7TVjuIbpo6cbwfuecvMSu3SsEVOPj
wtza2x/hrh4PqN3NBuzl8QMKV+x0ziJDd/VxdGFTcCoUgUOOetoji/meEpIr4TFW
kQKDJXhn9QIDAQABMA0GCSqGSIb3DQEBCwUAA4IBAQCHfQNszRKtDbHJRI85+ISC
vwueZ0ZtFZn25X2pvHK52bDl+L+pAJjj0AvDO5lJy8lQfOd6U8YRBoH7qokrfkFD
95LrlkccyE1YEwHAdosBBapfyMPd0OHzQAcw/+BmtRm2sr44gsmwzF6reFRN9U+n
bRBXY+SdTggP2BDowLRvkeHx54LvQ13gHTy94jTuhKOl43Z8KWiHVvfl46zXj6Rz
Es2hMFV3r42rZFJcIRzV26h+IMlP2Ns9Z5EhvSW1+b8tw12EquF51l5vvi/e0UQR
c8GcQc89nwI5+DD7xNPgflo5AiiyXIxX5Ee0UjVcZv+DYALHbvm7cd+D/V5JFXkI
-----END CERTIFICATE-----
