Certificate:
    Data:
        Version: 3 (0x2)
        Serial Number:
            1d:79:2e:11:a5:0f:b2:9a:4f:d3:04:1d:a3:0f:cc:a9
        Signature Algorithm: sha256WithRSAEncryption
        Issuer: C=US, O=Intel Corporation, CN=OTC TEST-ONLY UEFI KEK Signer
        Validity
            Not Before: Jun 20 18:32:55 2014 GMT
            Not After : Jun 20 18:32:55 2024 GMT
        Subject: C=US, O=Intel Corporation, CN=OTC TEST-ONLY UEFI KEK Signer
        Subject Public Key Info:
            Public Key Algorithm: rsaEncryption
            RSA Public Key: (2048 bit)
                Modulus (2048 bit):
                    00:98:18:e4:37:1d:8e:07:58:10:b4:34:56:fb:b9:
                    b3:4d:19:8a:12:bb:4b:cb:d5:a9:7c:87:6f:e2:ef:
                    19:07:57:6c:ee:17:34:e7:60:90:30:71:8d:75:f1:
                    d1:ed:e5:ee:92:42:91:64:68:15:57:b3:57:c4:bc:
                    6f:d5:10:60:eb:d9:60:ad:ed:fa:40:b7:7f:f7:53:
                    bb:0f:56:b2:b7:34:73:08:50:c9:ac:fc:10:86:40:
                    09:68:f1:28:c5:35:f1:a9:bc:9e:09:76:d0:81:a5:
                    4c:55:fc:af:0e:10:d7:ff:50:61:74:ab:8c:e2:c6:
                    b5:fa:ad:7d:1e:70:9f:41:92:c3:80:81:53:fb:dc:
                    55:c4:1e:7e:06:10:1b:59:e7:0f:29:8c:70:6f:b4:
                    04:eb:69:31:2d:b8:dc:58:94:f0:4c:08:db:02:7e:
                    81:bd:b1:03:f2:2c:fb:3e:94:cc:1c:62:95:be:1a:
                    f5:90:25:ca:b8:28:34:3e:82:3f:df:46:8f:af:64:
                    a9:0d:a2:6e:f1:de:68:a8:ce:23:4a:34:ab:ab:22:
                    68:eb:4e:ad:80:7b:a2:cd:f7:37:fb:e3:fb:15:1e:
                    1c:d3:15:ab:48:56:ad:d3:fa:17:08:44:d7:9a:41:
                    58:8e:d9:58:57:9d:71:3d:3c:f3:40:c0:b9:ea:d9:
                    73:31
                Exponent: 65537 (0x10001)
    Signature Algorithm: sha256WithRSAEncryption
        50:c6:5d:f5:84:e6:25:53:8d:f8:60:81:77:62:96:b9:e0:9c:
        93:2e:0d:eb:43:54:23:2e:fb:14:4b:8b:99:8a:83:8f:5d:cf:
        05:36:36:c7:31:e4:98:79:a9:fc:0a:fa:9d:f7:bf:df:3b:e7:
        92:8b:b4:32:c7:8b:c7:e6:14:66:9d:0f:41:76:d0:1b:a7:07:
        53:4b:63:3f:be:31:9d:7e:c8:65:df:4e:6b:cd:6e:75:c7:72:
        d6:5e:ef:6d:11:3d:87:2f:86:4d:83:b7:6c:3f:49:b0:e5:89:
        69:7e:93:3c:7a:ce:cf:77:34:44:18:81:a7:fd:c2:c1:56:a9:
        29:39:8d:5c:94:ec:47:38:aa:fc:48:95:a1:a7:cb:e5:32:b3:
        39:4e:bc:58:f6:b4:a5:15:86:d1:fe:d1:53:52:fa:65:48:db:
        5c:be:3f:3c:74:b8:45:5c:6d:e4:37:82:26:87:58:38:20:01:
        ea:44:f4:00:5e:8c:28:7a:63:53:03:2f:05:9a:05:8d:ab:9b:
        11:7b:95:d9:c8:01:95:b8:75:f0:c3:49:17:14:b8:bc:4d:1f:
        c0:25:22:c3:4f:f7:34:ef:be:ed:0c:5f:3c:52:28:22:5d:2e:
        2f:f0:76:d6:d2:18:87:44:61:c6:03:09:a4:8d:cc:81:42:ba:
        64:e0:23:53
-----BEGIN CERTIFICATE-----
MIIDKjCCAhKgAwIBAgIQHXkuEaUPsppP0wQdow/MqTANBgkqhkiG9w0BAQsFADBR
MQswCQYDVQQGEwJVUzEaMBgGA1UEChMRSW50ZWwgQ29ycG9yYXRpb24xJjAkBgNV
BAMTHU9UQyBURVNULU9OTFkgVUVGSSBLRUsgU2lnbmVyMB4XDTE0MDYyMDE4MzI1
NVoXDTI0MDYyMDE4MzI1NVowUTELMAkGA1UEBhMCVVMxGjAYBgNVBAoTEUludGVs
IENvcnBvcmF0aW9uMSYwJAYDVQQDEx1PVEMgVEVTVC1PTkxZIFVFRkkgS0VLIFNp
Z25lcjCCASIwDQYJKoZIhvcNAQEBBQADggEPADCCAQoCggEBAJgY5DcdjgdYELQ0
Vvu5s00ZihK7S8vVqXyHb+LvGQdXbO4XNOdgkDBxjXXx0e3l7pJCkWRoFVezV8S8
b9UQYOvZYK3t+kC3f/dTuw9Wsrc0cwhQyaz8EIZACWjxKMU18am8ngl20IGlTFX8
rw4Q1/9QYXSrjOLGtfqtfR5wn0GSw4CBU/vcVcQefgYQG1nnDymMcG+0BOtpMS24
3FiU8EwI2wJ+gb2xA/Is+z6UzBxilb4a9ZAlyrgoND6CP99Gj69kqQ2ibvHeaKjO
I0o0q6siaOtOrYB7os33N/vj+xUeHNMVq0hWrdP6FwhE15pBWI7ZWFedcT0880DA
uerZczECAwEAATANBgkqhkiG9w0BAQsFAAOCAQEAUMZd9YTmJVON+GCBd2KWueCc
ky4N60NUIy77FEuLmYqDj13PBTY2xzHkmHmp/Ar6nfe/3zvnkou0MseLx+YUZp0P
QXbQG6cHU0tjP74xnX7IZd9Oa81udcdy1l7vbRE9hy+GTYO3bD9JsOWJaX6TPHrO
z3c0RBiBp/3CwVapKTmNXJTsRziq/EiVoafL5TKzOU68WPa0pRWG0f7RU1L6ZUjb
XL4/PHS4RVxt5DeCJodYOCAB6kT0AF6MKHpjUwMvBZoFjaubEXuV2cgBlbh18MNJ
FxS4vE0fwCUiw0/3NO++7QxfPFIoIl0uL/B21tIYh0RhxgMJpI3MgUK6ZOAjUw==
-----END CERTIFICATE-----
