Certificate:
    Data:
        Version: 3 (0x2)
        Serial Number:
            4a:ff:b0:62:fb:a5:49:a2:4b:91:ff:76:60:73:3c:97
        Signature Algorithm: sha256WithRSAEncryption
        Issuer: C=US, O=Intel Corporation, CN=OTC TEST-ONLY Media
        Validity
            Not Before: Jun 20 19:28:58 2014 GMT
            Not After : Jun 20 19:28:58 2049 GMT
        Subject: C=US, O=Intel Corporation, CN=OTC TEST-ONLY Media
        Subject Public Key Info:
            Public Key Algorithm: rsaEncryption
            RSA Public Key: (2048 bit)
                Modulus (2048 bit):
                    00:a5:c0:70:7c:c7:41:59:39:a4:3d:4c:27:bf:25:
                    59:f4:ab:b5:42:ec:d7:23:85:16:74:a3:d4:bd:9c:
                    9d:9a:70:d2:3e:96:aa:ed:71:59:6b:2a:91:c1:a5:
                    29:33:d2:02:65:ec:52:0b:e7:79:af:4b:ec:2a:15:
                    c4:78:2b:db:16:bf:53:83:52:0c:5b:56:27:27:4a:
                    50:b4:55:bd:4b:99:f4:e0:9c:0b:8e:84:25:81:fe:
                    92:18:6c:54:1a:90:cb:6e:d8:5e:8f:94:a6:fe:98:
                    38:48:b7:53:90:46:23:72:97:30:bd:17:01:b0:43:
                    71:23:d4:b3:7f:45:8f:b1:f2:39:f9:6d:f1:4d:fb:
                    3b:f4:e3:27:79:06:62:e9:ab:16:46:09:81:57:c3:
                    77:18:07:b4:85:c9:94:b2:49:e0:47:60:e9:71:5c:
                    35:93:0f:3f:6b:a6:7f:36:a2:07:06:4f:11:91:55:
                    fa:fb:32:a7:47:a5:ce:13:a5:c7:ae:7d:f2:92:08:
                    ec:5d:fa:1a:7c:e1:0b:c1:da:9f:1b:16:b4:e9:d2:
                    31:90:9e:92:cc:4c:9a:fe:27:14:f9:a0:b2:b2:4f:
                    9b:86:21:50:c2:fa:51:2d:0a:84:0b:70:07:06:21:
                    d0:98:72:26:bf:99:fd:16:96:18:70:2e:cd:69:c3:
                    77:d7
                Exponent: 65537 (0x10001)
    Signature Algorithm: sha256WithRSAEncryption
        47:a3:ac:45:5a:c7:24:20:30:b6:6f:2d:c3:ed:b8:f3:ed:bd:
        35:21:42:62:ac:04:1c:83:64:fe:9b:74:02:62:5b:c8:15:57:
        dd:77:06:f6:68:cc:38:ce:0e:5e:a0:d7:6e:c0:68:a5:00:b5:
        5a:24:2f:3e:f1:d4:26:e1:d8:9b:36:b7:71:c2:6d:2f:6c:37:
        06:6c:ea:db:e9:f8:8d:c3:f6:8a:30:cd:f3:05:73:17:f1:4e:
        1f:8b:e6:96:15:81:8c:93:7c:54:b3:9a:a1:92:58:1b:7d:f6:
        96:a0:cf:5d:47:5b:d0:07:6a:dd:60:86:0c:14:2c:05:12:cd:
        e9:61:60:cb:1c:3c:7d:96:16:6e:a9:d3:c4:51:f2:5c:04:d1:
        a5:d8:6c:f1:40:ac:3d:a2:6c:db:a4:4b:b9:5b:ae:82:53:72:
        3b:3c:7a:6a:48:14:66:4e:e4:f5:61:49:b3:4d:8a:b5:3c:f7:
        ed:56:32:74:15:29:78:64:71:d3:c9:13:f7:25:d6:69:24:ef:
        87:94:8f:ab:eb:4d:b4:5b:46:fe:4b:f5:c2:5a:f6:d8:5a:97:
        a3:4d:04:dd:5d:8f:7d:9c:bb:c2:45:57:41:17:7f:22:dd:ab:
        9b:cd:02:24:f1:b9:ca:00:03:14:28:87:47:d1:0f:27:d9:26:
        5a:de:77:5f
-----BEGIN CERTIFICATE-----
MIIDFjCCAf6gAwIBAgIQSv+wYvulSaJLkf92YHM8lzANBgkqhkiG9w0BAQsFADBH
MQswCQYDVQQGEwJVUzEaMBgGA1UEChMRSW50ZWwgQ29ycG9yYXRpb24xHDAaBgNV
BAMTE09UQyBURVNULU9OTFkgTWVkaWEwHhcNMTQwNjIwMTkyODU4WhcNNDkwNjIw
MTkyODU4WjBHMQswCQYDVQQGEwJVUzEaMBgGA1UEChMRSW50ZWwgQ29ycG9yYXRp
b24xHDAaBgNVBAMTE09UQyBURVNULU9OTFkgTWVkaWEwggEiMA0GCSqGSIb3DQEB
AQUAA4IBDwAwggEKAoIBAQClwHB8x0FZOaQ9TCe/JVn0q7VC7NcjhRZ0o9S9nJ2a
cNI+lqrtcVlrKpHBpSkz0gJl7FIL53mvS+wqFcR4K9sWv1ODUgxbVicnSlC0Vb1L
mfTgnAuOhCWB/pIYbFQakMtu2F6PlKb+mDhIt1OQRiNylzC9FwGwQ3Ej1LN/RY+x
8jn5bfFN+zv04yd5BmLpqxZGCYFXw3cYB7SFyZSySeBHYOlxXDWTDz9rpn82ogcG
TxGRVfr7MqdHpc4TpceuffKSCOxd+hp84QvB2p8bFrTp0jGQnpLMTJr+JxT5oLKy
T5uGIVDC+lEtCoQLcAcGIdCYcia/mf0WlhhwLs1pw3fXAgMBAAEwDQYJKoZIhvcN
AQELBQADggEBAEejrEVaxyQgMLZvLcPtuPPtvTUhQmKsBByDZP6bdAJiW8gVV913
BvZozDjODl6g127AaKUAtVokLz7x1Cbh2Js2t3HCbS9sNwZs6tvp+I3D9oowzfMF
cxfxTh+L5pYVgYyTfFSzmqGSWBt99pagz11HW9AHat1ghgwULAUSzelhYMscPH2W
Fm6p08RR8lwE0aXYbPFArD2ibNukS7lbroJTcjs8empIFGZO5PVhSbNNirU89+1W
MnQVKXhkcdPJE/cl1mkk74eUj6vrTbRbRv5L9cJa9thal6NNBN1dj32cu8JFV0EX
fyLdq5vNAiTxucoAAxQoh0fRDyfZJlred18=
-----END CERTIFICATE-----
