Certificate:
    Data:
        Version: 3 (0x2)
        Serial Number:
            6a:5f:65:1b:bf:da:0e:91:49:a5:b2:d7:b0:5e:04:e5
        Signature Algorithm: sha256WithRSAEncryption
        Issuer: C=US, O=Intel Corporation, CN=OTC TEST-ONLY UEFI PK
        Validity
            Not Before: Jun 20 18:26:37 2014 GMT
            Not After : Jun 20 18:26:37 2024 GMT
        Subject: C=US, O=Intel Corporation, CN=OTC TEST-ONLY UEFI PK
        Subject Public Key Info:
            Public Key Algorithm: rsaEncryption
            RSA Public Key: (2048 bit)
                Modulus (2048 bit):
                    00:a0:c1:b3:14:2f:1b:39:3a:a7:9b:c1:ff:e3:94:
                    12:7b:b0:c7:64:c5:1a:8f:42:9b:3f:7e:81:f3:80:
                    df:27:cd:b6:ee:e2:9a:b7:da:3d:42:e5:f8:74:41:
                    5f:06:d0:6c:45:cd:cf:0f:a9:31:b3:8e:9b:2e:93:
                    81:a5:d8:56:ac:b7:f9:de:2a:26:7b:20:e9:4a:4a:
                    ec:76:30:66:c2:d5:39:0a:58:15:83:f6:7e:92:99:
                    fa:e4:68:cd:3a:3a:c0:6e:c5:24:ba:13:b3:2e:a8:
                    09:d3:e6:95:36:0a:5f:14:64:f7:d3:02:6d:b5:86:
                    bb:61:cf:21:6c:42:2f:11:42:92:b3:94:9b:5e:34:
                    2f:5c:18:e0:69:6f:1f:d6:5c:cf:16:e7:b9:8f:c9:
                    6f:7b:49:43:3a:74:a6:02:3b:ac:6c:cb:26:18:2a:
                    6e:70:3a:a5:cb:89:40:1d:ca:f1:fe:49:1f:16:5a:
                    40:4e:16:73:1e:fd:af:e6:3c:eb:11:eb:e2:57:f1:
                    e6:c9:6c:5e:c5:01:1b:43:73:f2:c6:ea:ed:05:42:
                    99:66:22:e9:30:1d:d5:73:74:fc:34:ae:83:5b:12:
                    af:f7:06:4b:33:7b:7f:a5:53:17:b5:74:1b:6e:ce:
                    df:b2:d4:4d:a8:65:73:64:e4:9a:65:0e:58:3a:04:
                    fa:6d
                Exponent: 65537 (0x10001)
    Signature Algorithm: sha256WithRSAEncryption
        55:8e:e1:2d:1f:82:2e:21:08:1e:cd:b6:ce:45:41:a0:e4:36:
        78:ab:5e:8d:63:c6:95:79:94:1b:8e:48:95:70:8d:6d:95:55:
        c4:7a:59:58:e9:30:84:91:44:58:10:98:dd:b5:a1:19:35:27:
        3c:8b:6b:c3:d7:41:71:9f:88:5c:18:1d:82:cb:ee:f2:4e:fa:
        07:a0:99:23:79:7a:31:08:4f:88:e2:a7:c3:15:b4:10:06:54:
        2a:86:29:87:a8:ac:fa:af:e8:19:ef:44:0b:ae:3e:92:d9:10:
        9a:2d:ad:b0:12:6c:20:ab:a5:79:73:73:b6:a7:49:ed:0d:5f:
        17:b2:55:ef:0f:1f:64:bd:ea:6a:90:30:37:92:50:a5:22:d8:
        66:a8:a7:55:c6:a9:7b:b8:89:5d:70:68:2c:5f:3f:5a:4a:6b:
        58:fa:ac:16:97:cb:83:5a:80:fc:0d:1b:9f:39:9e:d1:4b:cc:
        11:bc:87:43:a7:24:1a:17:91:03:5b:2b:5f:8f:fb:70:ba:58:
        53:9d:e6:a2:76:4e:73:75:f9:f4:a4:a4:e4:1f:4d:b6:5c:45:
        cc:62:9c:4b:ad:7e:13:72:1a:85:60:1a:ec:2b:52:b2:b6:21:
        2a:5c:7b:df:2f:e6:f6:70:9d:76:d5:2b:c8:5e:10:3f:5b:5c:
        13:68:d2:af
-----BEGIN CERTIFICATE-----
MIIDGjCCAgKgAwIBAgIQal9lG7/aDpFJpbLXsF4E5TANBgkqhkiG9w0BAQsFADBJ
MQswCQYDVQQGEwJVUzEaMBgGA1UEChMRSW50ZWwgQ29ycG9yYXRpb24xHjAcBgNV
BAMTFU9UQyBURVNULU9OTFkgVUVGSSBQSzAeFw0xNDA2MjAxODI2MzdaFw0yNDA2
MjAxODI2MzdaMEkxCzAJBgNVBAYTAlVTMRowGAYDVQQKExFJbnRlbCBDb3Jwb3Jh
dGlvbjEeMBwGA1UEAxMVT1RDIFRFU1QtT05MWSBVRUZJIFBLMIIBIjANBgkqhkiG
9w0BAQEFAAOCAQ8AMIIBCgKCAQEAoMGzFC8bOTqnm8H/45QSe7DHZMUaj0KbP36B
84DfJ8227uKat9o9QuX4dEFfBtBsRc3PD6kxs46bLpOBpdhWrLf53iomeyDpSkrs
djBmwtU5ClgVg/Z+kpn65GjNOjrAbsUkuhOzLqgJ0+aVNgpfFGT30wJttYa7Yc8h
bEIvEUKSs5SbXjQvXBjgaW8f1lzPFue5j8lve0lDOnSmAjusbMsmGCpucDqly4lA
Hcrx/kkfFlpAThZzHv2v5jzrEeviV/HmyWxexQEbQ3PyxurtBUKZZiLpMB3Vc3T8
NK6DWxKv9wZLM3t/pVMXtXQbbs7fstRNqGVzZOSaZQ5YOgT6bQIDAQABMA0GCSqG
SIb3DQEBCwUAA4IBAQBVjuEtH4IuIQgezbbORUGg5DZ4q16NY8aVeZQbjkiVcI1t
lVXEellY6TCEkURYEJjdtaEZNSc8i2vD10Fxn4hcGB2Cy+7yTvoHoJkjeXoxCE+I
4qfDFbQQBlQqhimHqKz6r+gZ70QLrj6S2RCaLa2wEmwgq6V5c3O2p0ntDV8XslXv
Dx9kvepqkDA3klClIthmqKdVxql7uIldcGgsXz9aSmtY+qwWl8uDWoD8DRufOZ7R
S8wRvIdDpyQaF5EDWytfj/twulhTneaidk5zdfn0pKTkH022XEXMYpxLrX4TchqF
YBrsK1KytiEqXHvfL+b2cJ121SvIXhA/W1wTaNKv
-----END CERTIFICATE-----
