Certificate:
    Data:
        Version: 3 (0x2)
        Serial Number:
            2d:82:d6:f7:55:1d:e0:b6:42:3a:33:71:ba:01:a8:7e
        Signature Algorithm: sha256WithRSAEncryption
        Issuer: C=US, O=Intel Corporation, CN=OTC TEST-ONLY Platform
        Validity
            Not Before: Jun 20 19:20:58 2014 GMT
            Not After : Jun 20 19:20:58 2049 GMT
        Subject: C=US, O=Intel Corporation, CN=OTC TEST-ONLY Platform
        Subject Public Key Info:
            Public Key Algorithm: rsaEncryption
            RSA Public Key: (2048 bit)
                Modulus (2048 bit):
                    00:a0:b1:a1:a7:8e:56:c5:f4:09:3f:7c:5b:a1:51:
                    e2:60:6e:74:ea:93:b6:90:91:5a:c6:d6:a1:bc:8c:
                    8d:0f:3b:9c:3a:54:4d:00:c1:25:e2:80:7a:8e:8f:
                    b2:2c:36:74:4e:c9:b1:ea:4d:59:51:c1:38:ca:8c:
                    68:50:c9:c8:19:8f:d3:14:79:06:6c:0f:ac:1e:98:
                    00:f3:6d:c7:52:c6:9b:1b:cf:30:2f:3f:26:e0:b9:
                    cc:c0:69:82:a0:c1:bd:ef:10:ff:9b:06:d3:99:cb:
                    cf:e7:8a:5f:c7:82:2f:ad:9a:bc:6c:25:8b:f3:21:
                    97:dd:61:c5:97:a2:8d:5e:fd:7e:e8:0f:0a:92:4b:
                    0b:c7:b4:29:75:58:15:87:28:76:3e:05:c7:86:ea:
                    80:ef:84:e1:a4:e7:32:ca:1d:7e:f7:53:7a:f0:6c:
                    f3:ad:dd:4a:62:b2:ee:13:7d:d2:e4:86:01:03:b8:
                    ee:78:7b:e6:53:51:21:88:cf:56:ca:59:76:68:b2:
                    a1:60:22:59:e8:dd:f9:36:83:7a:4d:d3:a8:89:e6:
                    ce:98:1a:86:7c:70:cc:3c:35:92:88:da:04:93:ce:
                    60:c0:ba:73:c4:95:19:6c:89:54:52:83:e0:3f:50:
                    70:bd:ea:f3:42:38:bf:e9:0b:94:f6:77:f4:5c:0d:
                    00:cd
                Exponent: 65537 (0x10001)
    Signature Algorithm: sha256WithRSAEncryption
        06:12:47:4f:85:bb:72:30:78:8c:1c:14:66:42:27:f7:1e:62:
        a8:36:26:ff:40:d4:db:09:d6:95:51:e3:ff:79:e4:b0:05:c9:
        19:3a:7d:b5:b0:46:50:1f:39:6c:37:82:c5:5b:b5:4b:43:ff:
        29:6b:c9:d3:71:a9:f3:10:07:d3:02:1a:e4:f4:3f:d5:12:b3:
        4b:2d:ec:bd:e1:4c:4d:e7:fe:b2:d6:59:d4:f6:f3:e5:4b:bd:
        9c:01:25:d7:42:55:85:e5:01:cf:ac:a3:ed:1a:98:ce:19:a0:
        c9:a7:3f:4f:a0:4a:fc:f0:c1:82:99:32:25:c4:14:4b:4a:56:
        11:49:fb:d9:d3:53:f6:95:80:9d:54:45:bf:7c:51:57:10:1a:
        e4:52:22:8a:35:f8:bc:ed:09:ae:f2:ec:d9:d1:3f:e9:27:50:
        92:c6:87:a1:ba:90:10:c2:37:48:f5:d5:a0:64:f7:25:a1:77:
        39:d6:b6:ee:58:9c:d3:ce:51:0f:88:37:24:0f:b9:3d:c0:42:
        f3:b2:c3:17:15:7e:ea:be:a5:72:66:bd:c7:26:b3:57:5e:1e:
        5f:f7:1f:6b:0a:37:5c:fa:99:6a:05:ac:98:49:70:c5:1b:54:
        cf:ea:75:ce:f2:a1:02:4d:95:58:e6:6f:3a:7b:ac:61:af:e2:
        28:42:40:0d
-----BEGIN CERTIFICATE-----
MIIDHDCCAgSgAwIBAgIQLYLW91Ud4LZCOjNxugGofjANBgkqhkiG9w0BAQsFADBK
MQswCQYDVQQGEwJVUzEaMBgGA1UEChMRSW50ZWwgQ29ycG9yYXRpb24xHzAdBgNV
BAMTFk9UQyBURVNULU9OTFkgUGxhdGZvcm0wHhcNMTQwNjIwMTkyMDU4WhcNNDkw
NjIwMTkyMDU4WjBKMQswCQYDVQQGEwJVUzEaMBgGA1UEChMRSW50ZWwgQ29ycG9y
YXRpb24xHzAdBgNVBAMTFk9UQyBURVNULU9OTFkgUGxhdGZvcm0wggEiMA0GCSqG
SIb3DQEBAQUAA4IBDwAwggEKAoIBAQCgsaGnjlbF9Ak/fFuhUeJgbnTqk7aQkVrG
1qG8jI0PO5w6VE0AwSXigHqOj7IsNnROybHqTVlRwTjKjGhQycgZj9MUeQZsD6we
mADzbcdSxpsbzzAvPybguczAaYKgwb3vEP+bBtOZy8/nil/Hgi+tmrxsJYvzIZfd
YcWXoo1e/X7oDwqSSwvHtCl1WBWHKHY+BceG6oDvhOGk5zLKHX73U3rwbPOt3Upi
su4TfdLkhgEDuO54e+ZTUSGIz1bKWXZosqFgIlno3fk2g3pN06iJ5s6YGoZ8cMw8
NZKI2gSTzmDAunPElRlsiVRSg+A/UHC96vNCOL/pC5T2d/RcDQDNAgMBAAEwDQYJ
KoZIhvcNAQELBQADggEBAAYSR0+Fu3IweIwcFGZCJ/ceYqg2Jv9A1NsJ1pVR4/95
5LAFyRk6fbWwRlAfOWw3gsVbtUtD/ylrydNxqfMQB9MCGuT0P9USs0st7L3hTE3n
/rLWWdT28+VLvZwBJddCVYXlAc+so+0amM4ZoMmnP0+gSvzwwYKZMiXEFEtKVhFJ
+9nTU/aVgJ1URb98UVcQGuRSIoo1+LztCa7y7NnRP+knUJLGh6G6kBDCN0j11aBk
9yWhdznWtu5YnNPOUQ+INyQPuT3AQvOywxcVfuq+pXJmvccms1deHl/3H2sKN1z6
mWoFrJhJcMUbVM/qdc7yoQJNlVjmbzp7rGGv4ihCQA0=
-----END CERTIFICATE-----
