Certificate:
    Data:
        Version: 3 (0x2)
        Serial Number:
            1c:10:33:2d:25:35:e2:b3:45:7d:2b:e1:62:ca:75:eb
        Signature Algorithm: sha256WithRSAEncryption
        Issuer: C=US, O=Intel Corporation, CN=OTC TEST-ONLY Release
        Validity
            Not Before: Jun 20 18:57:41 2014 GMT
            Not After : Jun 20 18:57:41 2049 GMT
        Subject: C=US, O=Intel Corporation, CN=OTC TEST-ONLY Release
        Subject Public Key Info:
            Public Key Algorithm: rsaEncryption
            RSA Public Key: (2048 bit)
                Modulus (2048 bit):
                    00:b2:fe:8e:76:d1:29:38:0e:c0:a7:50:7e:2e:7a:
                    67:87:40:fc:7d:e1:3c:ef:67:a4:0a:00:14:09:f8:
                    53:78:e7:a7:87:cd:7b:68:46:bc:1d:77:f8:32:c2:
                    30:6d:12:b6:c8:f7:18:1d:f3:10:d6:43:85:75:40:
                    b8:82:b5:9e:21:f4:b1:3e:95:71:e1:c6:cf:60:38:
                    65:7e:4a:eb:9e:a3:c7:09:40:44:90:61:e3:af:26:
                    8a:26:0b:1b:29:7d:21:50:7b:10:97:9a:a2:4c:46:
                    0c:d9:17:b7:e6:12:4a:64:66:2e:b8:2d:16:b7:0f:
                    a8:5f:81:6b:9b:5e:8a:8f:28:24:30:15:48:d4:40:
                    60:a7:b3:dd:c9:7e:ca:be:43:06:78:ad:90:f0:71:
                    0d:de:fe:67:29:c1:da:b1:0e:90:32:9e:39:79:4a:
                    31:3e:fe:ec:cd:a1:5d:cb:1a:43:89:ec:da:9f:e6:
                    89:19:c2:30:9f:cf:f2:61:36:83:48:2e:61:4e:87:
                    33:5c:05:44:06:40:26:5c:4d:6a:46:fc:e3:80:d7:
                    14:39:21:81:05:9d:93:93:8b:00:29:b1:3a:67:68:
                    99:5a:cc:55:45:a2:e9:40:d5:72:e7:a0:67:5f:e2:
                    9e:06:24:6c:a0:66:6a:f1:c3:2e:3f:40:d7:1d:78:
                    58:e9
                Exponent: 65537 (0x10001)
    Signature Algorithm: sha256WithRSAEncryption
        8f:ba:78:0f:ab:73:54:5f:6c:ee:6d:18:5d:64:11:a0:8e:79:
        ad:ae:69:c3:eb:44:dc:db:80:45:c7:3a:33:31:66:2e:b2:08:
        94:c4:27:2f:a3:42:e8:13:60:db:89:95:c3:4b:59:fb:60:ba:
        7d:38:28:a2:95:c8:f5:54:af:19:dc:2a:92:b3:c6:80:ab:00:
        16:14:15:13:86:f0:4b:52:a0:21:fd:04:6b:c3:ee:1a:8b:57:
        0b:e0:d9:be:9d:7a:53:7d:26:22:21:fd:e7:fc:ae:3b:65:52:
        f6:91:ac:d0:c6:48:d8:28:92:69:33:8b:63:84:2b:2d:e4:43:
        73:75:88:1c:31:cb:54:50:c4:f0:f1:06:c7:99:6c:c7:11:34:
        83:ee:b9:f0:43:50:1a:35:54:b7:1b:b0:0a:48:d4:7b:72:02:
        00:c0:bd:ed:3f:0c:af:41:f4:bc:56:d3:be:9b:7f:e4:0e:fb:
        cd:a7:d3:1e:cf:0a:64:2e:1e:73:bc:b3:f5:63:61:3d:02:5a:
        e3:a6:41:34:a6:2d:8d:e9:09:62:f3:41:dc:5c:5b:58:1b:af:
        3c:4c:77:fa:e2:82:26:e7:b6:a1:76:79:e5:e9:56:f1:c4:c0:
        1b:0c:c1:77:78:9a:61:57:50:a0:4b:30:13:3b:dc:89:81:7e:
        d0:dd:c8:9b
-----BEGIN CERTIFICATE-----
MIIDGjCCAgKgAwIBAgIQHBAzLSU14rNFfSvhYsp16zANBgkqhkiG9w0BAQsFADBJ
MQswCQYDVQQGEwJVUzEaMBgGA1UEChMRSW50ZWwgQ29ycG9yYXRpb24xHjAcBgNV
BAMTFU9UQyBURVNULU9OTFkgUmVsZWFzZTAeFw0xNDA2MjAxODU3NDFaFw00OTA2
MjAxODU3NDFaMEkxCzAJBgNVBAYTAlVTMRowGAYDVQQKExFJbnRlbCBDb3Jwb3Jh
dGlvbjEeMBwGA1UEAxMVT1RDIFRFU1QtT05MWSBSZWxlYXNlMIIBIjANBgkqhkiG
9w0BAQEFAAOCAQ8AMIIBCgKCAQEAsv6OdtEpOA7Ap1B+Lnpnh0D8feE872ekCgAU
CfhTeOenh817aEa8HXf4MsIwbRK2yPcYHfMQ1kOFdUC4grWeIfSxPpVx4cbPYDhl
fkrrnqPHCUBEkGHjryaKJgsbKX0hUHsQl5qiTEYM2Re35hJKZGYuuC0Wtw+oX4Fr
m16KjygkMBVI1EBgp7PdyX7KvkMGeK2Q8HEN3v5nKcHasQ6QMp45eUoxPv7szaFd
yxpDiezan+aJGcIwn8/yYTaDSC5hToczXAVEBkAmXE1qRvzjgNcUOSGBBZ2Tk4sA
KbE6Z2iZWsxVRaLpQNVy56BnX+KeBiRsoGZq8cMuP0DXHXhY6QIDAQABMA0GCSqG
SIb3DQEBCwUAA4IBAQCPungPq3NUX2zubRhdZBGgjnmtrmnD60Tc24BFxzozMWYu
sgiUxCcvo0LoE2DbiZXDS1n7YLp9OCiilcj1VK8Z3CqSs8aAqwAWFBUThvBLUqAh
/QRrw+4ai1cL4Nm+nXpTfSYiIf3n/K47ZVL2kazQxkjYKJJpM4tjhCst5ENzdYgc
MctUUMTw8QbHmWzHETSD7rnwQ1AaNVS3G7AKSNR7cgIAwL3tPwyvQfS8VtO+m3/k
DvvNp9MezwpkLh5zvLP1Y2E9AlrjpkE0pi2N6Qli80HcXFtYG688THf64oIm57ah
dnnl6VbxxMAbDMF3eJphV1CgSzATO9yJgX7Q3cib
-----END CERTIFICATE-----
