Certificate:
    Data:
        Version: 3 (0x2)
        Serial Number:
            41:4c:d3:1c:2d:a0:c1:a2:49:e2:ed:fb:92:a4:e1:41
        Signature Algorithm: sha256WithRSAEncryption
        Issuer: C=US, O=Intel Corporation, CN=OTC TEST-ONLY Shared
        Validity
            Not Before: Jun 20 19:33:28 2014 GMT
            Not After : Jun 20 19:33:28 2049 GMT
        Subject: C=US, O=Intel Corporation, CN=OTC TEST-ONLY Shared
        Subject Public Key Info:
            Public Key Algorithm: rsaEncryption
            RSA Public Key: (2048 bit)
                Modulus (2048 bit):
                    00:d6:8f:07:b8:37:b1:17:16:20:84:da:9b:06:1b:
                    f7:14:d8:4d:16:ed:1e:20:3c:51:02:cb:cd:f8:4c:
                    4e:0f:5b:fe:48:a6:1b:f1:5b:6b:6f:cb:bb:d2:68:
                    63:54:b3:63:e7:96:a4:5c:b4:1f:41:c1:5d:ed:47:
                    77:3c:d1:54:7a:96:36:cf:aa:cb:4a:ef:c8:f2:ac:
                    b2:85:8f:d6:a7:90:be:15:d6:e8:3b:72:6a:71:77:
                    b9:59:66:3a:f6:b0:1c:d9:cd:32:d3:2a:a3:8c:0f:
                    d3:92:69:f9:f5:5f:42:ad:fa:5f:81:ac:ae:c2:18:
                    4c:77:d7:49:df:a3:2f:87:5b:8b:9f:ba:9a:08:40:
                    49:f2:97:f7:26:ef:47:ef:40:13:9a:4b:da:32:ff:
                    5a:21:c1:47:3c:c2:fa:b8:cb:9e:ee:f4:35:37:39:
                    af:ea:8d:61:29:8a:99:bf:54:32:2d:9f:78:fa:12:
                    0a:10:a4:2c:fa:47:9b:99:e8:e9:e8:13:e8:3d:96:
                    ce:61:72:5a:89:5d:71:75:10:2c:ea:76:65:13:67:
                    5a:8c:f9:27:2a:f4:b1:f1:f6:22:82:06:83:38:f8:
                    57:6b:c5:6b:8f:f9:63:de:ca:e2:c9:9c:92:42:b6:
                    f5:28:47:5c:8f:32:14:e3:33:2d:1b:7e:0c:5c:36:
                    ea:8f
                Exponent: 65537 (0x10001)
    Signature Algorithm: sha256WithRSAEncryption
        9a:ec:a7:0a:15:9b:d9:dd:67:b2:69:15:36:1c:df:9c:c3:49:
        95:15:ba:4f:4c:2c:e0:ac:ef:62:f8:24:32:68:2e:fe:76:75:
        20:9c:1f:25:35:2b:11:33:09:40:14:03:1d:02:29:51:0f:5b:
        64:a6:d5:51:a0:f1:c6:fa:54:43:3e:27:8f:7b:97:34:32:bd:
        7a:bf:ee:77:82:21:a1:3f:a2:c5:65:ee:6a:54:d9:bd:5d:ae:
        90:f3:75:1c:f6:35:c9:b7:a0:8a:de:b8:32:16:93:79:ab:f1:
        4e:33:ee:fa:ea:aa:ae:15:93:9e:81:20:95:e5:04:37:ad:f3:
        47:7a:5f:b0:92:3f:a1:ca:78:4f:47:d8:ee:24:47:b4:fb:ff:
        ca:b4:b9:7b:e3:bb:ac:07:18:39:1a:18:ac:eb:30:1b:06:19:
        6c:71:9e:2e:ba:7c:37:bc:e2:97:dd:22:93:be:76:53:ee:52:
        1a:2b:43:50:a7:5d:b4:2b:7c:56:df:77:2d:71:78:48:03:b6:
        bd:7c:63:90:b8:a9:a4:8b:ad:12:a4:aa:f9:51:98:ea:cd:49:
        14:22:32:79:89:d5:51:c2:b9:cd:9b:32:76:4d:16:70:6e:12:
        12:55:7a:97:2f:70:d7:3f:68:60:db:50:59:89:45:f4:c3:0f:
        06:9b:ad:91
-----BEGIN CERTIFICATE-----
MIIDGDCCAgCgAwIBAgIQQUzTHC2gwaJJ4u37kqThQTANBgkqhkiG9w0BAQsFADBI
MQswCQYDVQQGEwJVUzEaMBgGA1UEChMRSW50ZWwgQ29ycG9yYXRpb24xHTAbBgNV
BAMTFE9UQyBURVNULU9OTFkgU2hhcmVkMB4XDTE0MDYyMDE5MzMyOFoXDTQ5MDYy
MDE5MzMyOFowSDELMAkGA1UEBhMCVVMxGjAYBgNVBAoTEUludGVsIENvcnBvcmF0
aW9uMR0wGwYDVQQDExRPVEMgVEVTVC1PTkxZIFNoYXJlZDCCASIwDQYJKoZIhvcN
AQEBBQADggEPADCCAQoCggEBANaPB7g3sRcWIITamwYb9xTYTRbtHiA8UQLLzfhM
Tg9b/kimG/Fba2/Lu9JoY1SzY+eWpFy0H0HBXe1HdzzRVHqWNs+qy0rvyPKssoWP
1qeQvhXW6DtyanF3uVlmOvawHNnNMtMqo4wP05Jp+fVfQq36X4GsrsIYTHfXSd+j
L4dbi5+6mghASfKX9ybvR+9AE5pL2jL/WiHBRzzC+rjLnu70NTc5r+qNYSmKmb9U
Mi2fePoSChCkLPpHm5no6egT6D2WzmFyWoldcXUQLOp2ZRNnWoz5Jyr0sfH2IoIG
gzj4V2vFa4/5Y97K4smckkK29ShHXI8yFOMzLRt+DFw26o8CAwEAATANBgkqhkiG
9w0BAQsFAAOCAQEAmuynChWb2d1nsmkVNhzfnMNJlRW6T0ws4KzvYvgkMmgu/nZ1
IJwfJTUrETMJQBQDHQIpUQ9bZKbVUaDxxvpUQz4nj3uXNDK9er/ud4IhoT+ixWXu
alTZvV2ukPN1HPY1ybegit64MhaTeavxTjPu+uqqrhWTnoEgleUEN63zR3pfsJI/
ocp4T0fY7iRHtPv/yrS5e+O7rAcYORoYrOswGwYZbHGeLrp8N7zil90ik752U+5S
GitDUKddtCt8Vt93LXF4SAO2vXxjkLippIutEqSq+VGY6s1JFCIyeYnVUcK5zZsy
dk0WcG4SElV6ly9w1z9oYNtQWYlF9MMPBputkQ==
-----END CERTIFICATE-----
